target datalayout = "e-m:e-p270:32:32-p271:32:32-p272:64:64-i64:64-i128:128-f80:128-n8:16:32:64-S128"
target triple = "x86_64-pc-linux-gnu"

%struct.AVFormatContext = type { ptr, ptr, ptr, ptr, ptr, i32, i32, ptr, i32, ptr, i32, ptr, ptr, i64, i64, i64, i32, i32, i32, i64, i64, ptr, i32, i32, ptr, i32, i32, i32, i32, ptr, i64, i32, i32, %struct.AVIOInterruptCB, i32, i32, i32, i32, i64, i32, i32, i32, i32, i32, i32, i32, i32, i32, i32, i32, i32, i64, i32, i32, i32, i32, i32, ptr, ptr, ptr, ptr, i32, ptr, ptr, ptr, ptr, i32, ptr, ptr, i64, ptr, ptr, ptr, i64 }
%struct.AVIOInterruptCB = type { ptr, ptr }
%struct.HDSContext = type { ptr, i32, i32, i32, i32, ptr, i32 }
%struct.OutputStream = type { i32, i32, ptr, i32, [32768 x i8], [1024 x i8], i64, i64, ptr, i32, i32, i32, i32, ptr, i32, i32, ptr, i32, [2 x ptr], [2 x i32], i32 }

@.str.20 = private unnamed_addr constant [17 x i8] c"%s/stream%d.abst\00", align 1
@.str.23 = private unnamed_addr constant [13 x i8] c"%s/index.f4m\00", align 1

; Function Attrs: nounwind uwtable
define internal i32 @hds_write_trailer(ptr noundef %0) #0 {
  %2 = alloca ptr, align 8
  %3 = alloca ptr, align 8
  %4 = alloca i32, align 4
  %5 = alloca [1024 x i8], align 16
  store ptr %0, ptr %2, align 8, !tbaa !4
  call void @llvm.lifetime.start.p0(i64 8, ptr %3) #9
  %6 = load ptr, ptr %2, align 8, !tbaa !4
  %7 = getelementptr inbounds nuw %struct.AVFormatContext, ptr %6, i32 0, i32 3
  %8 = load ptr, ptr %7, align 8, !tbaa !9
  store ptr %8, ptr %3, align 8, !tbaa !26
  call void @llvm.lifetime.start.p0(i64 4, ptr %4) #9
  store i32 0, ptr %4, align 4, !tbaa !28
  br label %9

9:                                                ; preds = %32, %1
  %10 = load i32, ptr %4, align 4, !tbaa !28
  %11 = load ptr, ptr %3, align 8, !tbaa !26
  %12 = getelementptr inbounds nuw %struct.HDSContext, ptr %11, i32 0, i32 6
  %13 = load i32, ptr %12, align 8, !tbaa !35
  %14 = icmp slt i32 %10, %13
  br i1 %14, label %15, label %35

15:                                               ; preds = %9
  %16 = load ptr, ptr %2, align 8, !tbaa !4
  %17 = load ptr, ptr %3, align 8, !tbaa !26
  %18 = getelementptr inbounds nuw %struct.HDSContext, ptr %17, i32 0, i32 5
  %19 = load ptr, ptr %18, align 8, !tbaa !32
  %20 = load i32, ptr %4, align 4, !tbaa !28
  %21 = sext i32 %20 to i64
  %22 = getelementptr inbounds %struct.OutputStream, ptr %19, i64 %21
  %23 = load ptr, ptr %3, align 8, !tbaa !26
  %24 = getelementptr inbounds nuw %struct.HDSContext, ptr %23, i32 0, i32 5
  %25 = load ptr, ptr %24, align 8, !tbaa !32
  %26 = load i32, ptr %4, align 4, !tbaa !28
  %27 = sext i32 %26 to i64
  %28 = getelementptr inbounds %struct.OutputStream, ptr %25, i64 %27
  %29 = getelementptr inbounds nuw %struct.OutputStream, ptr %28, i32 0, i32 7
  %30 = load i64, ptr %29, align 8, !tbaa !97
  %31 = call i32 @hds_flush(ptr noundef %16, ptr noundef %22, i32 noundef 1, i64 noundef %30)
  br label %32

32:                                               ; preds = %15
  %33 = load i32, ptr %4, align 4, !tbaa !28
  %34 = add nsw i32 %33, 1
  store i32 %34, ptr %4, align 4, !tbaa !28
  br label %9, !llvm.loop !98

35:                                               ; preds = %9
  %36 = load ptr, ptr %2, align 8, !tbaa !4
  %37 = call i32 @write_manifest(ptr noundef %36, i32 noundef 1)
  %38 = load ptr, ptr %3, align 8, !tbaa !26
  %39 = getelementptr inbounds nuw %struct.HDSContext, ptr %38, i32 0, i32 4
  %40 = load i32, ptr %39, align 4, !tbaa !99
  %41 = icmp ne i32 %40, 0
  br i1 %41, label %42, label %73

42:                                               ; preds = %35
  call void @llvm.lifetime.start.p0(i64 1024, ptr %5) #9
  %43 = getelementptr inbounds [1024 x i8], ptr %5, i64 0, i64 0
  %44 = load ptr, ptr %2, align 8, !tbaa !4
  %45 = getelementptr inbounds nuw %struct.AVFormatContext, ptr %44, i32 0, i32 12
  %46 = load ptr, ptr %45, align 8, !tbaa !29
  %47 = call i32 (ptr, i64, ptr, ...) @snprintf(ptr noundef %43, i64 noundef 1024, ptr noundef @.str.23, ptr noundef %46) #9
  %48 = getelementptr inbounds [1024 x i8], ptr %5, i64 0, i64 0
  %49 = call i32 @unlink(ptr noundef %48) #9
  store i32 0, ptr %4, align 4, !tbaa !28
  br label %50

50:                                               ; preds = %65, %42
  %51 = load i32, ptr %4, align 4, !tbaa !28
  %52 = load ptr, ptr %3, align 8, !tbaa !26
  %53 = getelementptr inbounds nuw %struct.HDSContext, ptr %52, i32 0, i32 6
  %54 = load i32, ptr %53, align 8, !tbaa !35
  %55 = icmp slt i32 %51, %54
  br i1 %55, label %56, label %68

56:                                               ; preds = %50
  %57 = getelementptr inbounds [1024 x i8], ptr %5, i64 0, i64 0
  %58 = load ptr, ptr %2, align 8, !tbaa !4
  %59 = getelementptr inbounds nuw %struct.AVFormatContext, ptr %58, i32 0, i32 12
  %60 = load ptr, ptr %59, align 8, !tbaa !29
  %61 = load i32, ptr %4, align 4, !tbaa !28
  %62 = call i32 (ptr, i64, ptr, ...) @snprintf(ptr noundef %57, i64 noundef 1024, ptr noundef @.str.20, ptr noundef %60, i32 noundef %61) #9
  %63 = getelementptr inbounds [1024 x i8], ptr %5, i64 0, i64 0
  %64 = call i32 @unlink(ptr noundef %63) #9
  br label %65

65:                                               ; preds = %56
  %66 = load i32, ptr %4, align 4, !tbaa !28
  %67 = add nsw i32 %66, 1
  store i32 %67, ptr %4, align 4, !tbaa !28
  br label %50, !llvm.loop !100

68:                                               ; preds = %50
  %69 = load ptr, ptr %2, align 8, !tbaa !4
  %70 = getelementptr inbounds nuw %struct.AVFormatContext, ptr %69, i32 0, i32 12
  %71 = load ptr, ptr %70, align 8, !tbaa !29
  %72 = call i32 @rmdir(ptr noundef %71) #9
  call void @llvm.lifetime.end.p0(i64 1024, ptr %5) #9
  br label %73

73:                                               ; preds = %68, %35
  call void @llvm.lifetime.end.p0(i64 4, ptr %4) #9
  call void @llvm.lifetime.end.p0(i64 8, ptr %3) #9
  ret i32 0
}