; Function Attrs: nounwind uwtable
define internal noundef i32 @hds_write_trailer(ptr noundef %0) #0 {
  %2 = alloca [1024 x i8], align 16
  %3 = getelementptr inbounds nuw i8, ptr %0, i64 24
  %4 = load ptr, ptr %3, align 8, !tbaa !4
  %5 = getelementptr inbounds nuw i8, ptr %4, i64 32
  %6 = load i32, ptr %5, align 8, !tbaa !30
  %7 = icmp sgt i32 %6, 0
  br i1 %7, label %.lr.ph, label %._crit_edge

.lr.ph:                                           ; preds = %1
  %8 = getelementptr inbounds nuw i8, ptr %4, i64 24
  br label %9

9:                                                ; preds = %.lr.ph, %9
  %indvars.iv = phi i64 [ 0, %.lr.ph ], [ %indvars.iv.next, %9 ]
  %10 = load ptr, ptr %8, align 8, !tbaa !27
  %11 = getelementptr inbounds nuw %struct.OutputStream, ptr %10, i64 %indvars.iv
  %12 = getelementptr inbounds nuw i8, ptr %11, i64 33824
  %13 = load i64, ptr %12, align 8, !tbaa !90
  %14 = tail call fastcc i32 @hds_flush(ptr noundef nonnull %0, ptr noundef %11, i32 noundef 1, i64 noundef %13)
  %indvars.iv.next = add nuw nsw i64 %indvars.iv, 1
  %15 = load i32, ptr %5, align 8, !tbaa !30
  %16 = sext i32 %15 to i64
  %17 = icmp slt i64 %indvars.iv.next, %16
  br i1 %17, label %9, label %._crit_edge, !llvm.loop !91

._crit_edge:                                      ; preds = %9, %1
  %18 = tail call fastcc i32 @write_manifest(ptr noundef nonnull %0, i32 noundef 1)
  %19 = getelementptr inbounds nuw i8, ptr %4, i64 20
  %20 = load i32, ptr %19, align 4, !tbaa !92
  %.not = icmp eq i32 %20, 0
  br i1 %.not, label %36, label %21

21:                                               ; preds = %._crit_edge
  call void @llvm.lifetime.start.p0(i64 1024, ptr nonnull %2) #8
  %22 = getelementptr inbounds nuw i8, ptr %0, i64 88
  %23 = load ptr, ptr %22, align 8, !tbaa !24
  %24 = call i32 (ptr, i64, ptr, ...) @snprintf(ptr noundef nonnull dereferenceable(1) %2, i64 noundef 1024, ptr noundef nonnull @.str.23, ptr noundef %23) #8
  %25 = call i32 @unlink(ptr noundef nonnull %2) #8
  %26 = load i32, ptr %5, align 8, !tbaa !30
  %27 = icmp sgt i32 %26, 0
  br i1 %27, label %.lr.ph20, label %._crit_edge21

.lr.ph20:                                         ; preds = %21, %.lr.ph20
  %.118 = phi i32 [ %31, %.lr.ph20 ], [ 0, %21 ]
  %28 = load ptr, ptr %22, align 8, !tbaa !24
  %29 = call i32 (ptr, i64, ptr, ...) @snprintf(ptr noundef nonnull dereferenceable(1) %2, i64 noundef 1024, ptr noundef nonnull @.str.20, ptr noundef %28, i32 noundef %.118) #8
  %30 = call i32 @unlink(ptr noundef nonnull %2) #8
  %31 = add nuw nsw i32 %.118, 1
  %32 = load i32, ptr %5, align 8, !tbaa !30
  %33 = icmp slt i32 %31, %32
  br i1 %33, label %.lr.ph20, label %._crit_edge21, !llvm.loop !93

._crit_edge21:                                    ; preds = %.lr.ph20, %21
  %34 = load ptr, ptr %22, align 8, !tbaa !24
  %35 = tail call i32 @rmdir(ptr noundef %34) #8
  call void @llvm.lifetime.end.p0(i64 1024, ptr nonnull %2) #8
  br label %36

36:                                               ; preds = %._crit_edge21, %._crit_edge
  ret i32 0
}